target datalayout = "e-m:e-p270:32:32-p271:32:32-p272:64:64-i64:64-i128:128-f80:128-n8:16:32:64-S128"
target triple = "x86_64-pc-linux-gnu"

%struct.Agobj_s = type { %struct.Agtag_s, ptr }
%struct.Agtag_s = type { i32, i64 }
%struct.Agrec_s = type { ptr, ptr }
%struct.pointf_s = type { double, double }
%struct.Agedge_s = type { %struct.Agobj_s, %struct.dtlink_s_, %struct.dtlink_s_, ptr }
%struct.dtlink_s_ = type { ptr, %union.anon }
%union.anon = type { ptr }
%struct.Agedgeinfo_t = type { %struct.Agrec_s, ptr, %struct.port, %struct.port, ptr, ptr, ptr, ptr, i8, i8, i8, i8, i8, ptr, ptr, double, double, %struct.Ppoly_t, i8, i8, i16, i32, i32, i32, i16, i32, ptr }
%struct.port = type { %struct.pointf_s, double, ptr, i8, i8, i8, i8, i8, i8, ptr }
%struct.Ppoly_t = type { ptr, i64 }
%struct.Agedgepair_s = type { %struct.Agedge_s, %struct.Agedge_s }

@stderr = external global ptr, align 8
@.str.1 = private unnamed_addr constant [58 x i8] c"integer overflow when trying to allocate %zu * %zu bytes\0A\00", align 1
@.str.2 = private unnamed_addr constant [49 x i8] c"out of memory when trying to allocate %zu bytes\0A\00", align 1
@.str.3 = private unnamed_addr constant [76 x i8] c"Edge length %f larger than maximum %d allowed.\0ACheck for overwide node(s).\0A\00", align 1

; Function Attrs: inlinehint nounwind uwtable
define internal ptr @gv_calloc(i64 noundef %0, i64 noundef %1) #3 {
  %3 = alloca i64, align 8
  %4 = alloca i64, align 8
  %5 = alloca ptr, align 8
  store i64 %0, ptr %3, align 8, !tbaa !123
  store i64 %1, ptr %4, align 8, !tbaa !123
  %6 = load i64, ptr %3, align 8, !tbaa !123
  %7 = icmp ugt i64 %6, 0
  br i1 %7, label %8, label %18

8:                                                ; preds = %2
  %9 = load i64, ptr %3, align 8, !tbaa !123
  %10 = udiv i64 -1, %9
  %11 = load i64, ptr %4, align 8, !tbaa !123
  %12 = icmp ult i64 %10, %11
  br i1 %12, label %13, label %18

13:                                               ; preds = %8
  %14 = load ptr, ptr @stderr, align 8, !tbaa !142
  %15 = load i64, ptr %3, align 8, !tbaa !123
  %16 = load i64, ptr %4, align 8, !tbaa !123
  %17 = call i32 (ptr, ptr, ...) @fprintf(ptr noundef %14, ptr noundef @.str.1, i64 noundef %15, i64 noundef %16) #11
  call void @graphviz_exit(i32 noundef 1) #13
  unreachable

18:                                               ; preds = %8, %2
  call void @llvm.lifetime.start.p0(i64 8, ptr %5) #11
  %19 = load i64, ptr %3, align 8, !tbaa !123
  %20 = load i64, ptr %4, align 8, !tbaa !123
  %21 = call noalias ptr @calloc(i64 noundef %19, i64 noundef %20) #14
  store ptr %21, ptr %5, align 8, !tbaa !144
  %22 = load i64, ptr %3, align 8, !tbaa !123
  %23 = icmp ugt i64 %22, 0
  br i1 %23, label %24, label %36

24:                                               ; preds = %18
  %25 = load i64, ptr %4, align 8, !tbaa !123
  %26 = icmp ugt i64 %25, 0
  br i1 %26, label %27, label %36

27:                                               ; preds = %24
  %28 = load ptr, ptr %5, align 8, !tbaa !144
  %29 = icmp eq ptr %28, null
  br i1 %29, label %30, label %36

30:                                               ; preds = %27
  %31 = load ptr, ptr @stderr, align 8, !tbaa !142
  %32 = load i64, ptr %3, align 8, !tbaa !123
  %33 = load i64, ptr %4, align 8, !tbaa !123
  %34 = mul i64 %32, %33
  %35 = call i32 (ptr, ptr, ...) @fprintf(ptr noundef %31, ptr noundef @.str.2, i64 noundef %34) #11
  call void @graphviz_exit(i32 noundef 1) #13
  unreachable

36:                                               ; preds = %27, %24, %18
  %37 = load ptr, ptr %5, align 8, !tbaa !144
  call void @llvm.lifetime.end.p0(i64 8, ptr %5) #11
  ret ptr %37
}

; Function Attrs: nounwind uwtable
define internal double @largeMinlen(double noundef %0) #0 {
  %2 = alloca double, align 8
  store double %0, ptr %2, align 8, !tbaa !39
  %3 = load double, ptr %2, align 8, !tbaa !39
  call void (ptr, ...) @agerrorf(ptr noundef @.str.3, double noundef %3, i32 noundef 2147483647)
  ret double 0x41DFFFFFFFC00000
}

; Function Attrs: inlinehint nounwind uwtable
define internal ptr @gv_alloc(i64 noundef %0) #3 {
  %2 = alloca i64, align 8
  store i64 %0, ptr %2, align 8, !tbaa !123
  %3 = load i64, ptr %2, align 8, !tbaa !123
  %4 = call ptr @gv_calloc(i64 noundef 1, i64 noundef %3)
  ret ptr %4
}

; Function Attrs: nounwind uwtable
define ptr @make_aux_edge(ptr noundef %0, ptr noundef %1, double noundef %2, i32 noundef %3) #0 {
  %5 = alloca ptr, align 8
  %6 = alloca ptr, align 8
  %7 = alloca double, align 8
  %8 = alloca i32, align 4
  %9 = alloca ptr, align 8
  %10 = alloca ptr, align 8
  store ptr %0, ptr %5, align 8, !tbaa !46
  store ptr %1, ptr %6, align 8, !tbaa !46
  store double %2, ptr %7, align 8, !tbaa !39
  store i32 %3, ptr %8, align 4, !tbaa !36
  call void @llvm.lifetime.start.p0(i64 8, ptr %9) #11
  call void @llvm.lifetime.start.p0(i64 8, ptr %10) #11
  %11 = call ptr @gv_alloc(i64 noundef 128)
  store ptr %11, ptr %10, align 8, !tbaa !130
  %12 = load ptr, ptr %10, align 8, !tbaa !130
  %13 = getelementptr inbounds nuw %struct.Agedgepair_s, ptr %12, i32 0, i32 1
  %14 = getelementptr inbounds nuw %struct.Agobj_s, ptr %13, i32 0, i32 0
  %15 = load i32, ptr %14, align 8
  %16 = and i32 %15, -4
  %17 = or i32 %16, 3
  store i32 %17, ptr %14, align 8
  %18 = load ptr, ptr %10, align 8, !tbaa !130
  %19 = getelementptr inbounds nuw %struct.Agedgepair_s, ptr %18, i32 0, i32 0
  %20 = getelementptr inbounds nuw %struct.Agobj_s, ptr %19, i32 0, i32 0
  %21 = load i32, ptr %20, align 8
  %22 = and i32 %21, -4
  %23 = or i32 %22, 2
  store i32 %23, ptr %20, align 8
  %24 = call ptr @gv_alloc(i64 noundef 240)
  %25 = load ptr, ptr %10, align 8, !tbaa !130
  %26 = getelementptr inbounds nuw %struct.Agedgepair_s, ptr %25, i32 0, i32 0
  %27 = getelementptr inbounds nuw %struct.Agedge_s, ptr %26, i32 0, i32 0
  %28 = getelementptr inbounds nuw %struct.Agobj_s, ptr %27, i32 0, i32 1
  store ptr %24, ptr %28, align 8, !tbaa !132
  %29 = load ptr, ptr %10, align 8, !tbaa !130
  %30 = getelementptr inbounds nuw %struct.Agedgepair_s, ptr %29, i32 0, i32 0
  store ptr %30, ptr %9, align 8, !tbaa !55
  %31 = load ptr, ptr %5, align 8, !tbaa !46
  %32 = load ptr, ptr %9, align 8, !tbaa !55
  %33 = getelementptr inbounds nuw %struct.Agobj_s, ptr %32, i32 0, i32 0
  %34 = load i32, ptr %33, align 8
  %35 = and i32 %34, 3
  %36 = icmp eq i32 %35, 3
  br i1 %36, label %37, label %39

37:                                               ; preds = %4
  %38 = load ptr, ptr %9, align 8, !tbaa !55
  br label %42

39:                                               ; preds = %4
  %40 = load ptr, ptr %9, align 8, !tbaa !55
  %41 = getelementptr inbounds %struct.Agedge_s, ptr %40, i64 1
  br label %42

42:                                               ; preds = %39, %37
  %43 = phi ptr [ %38, %37 ], [ %41, %39 ]
  %44 = getelementptr inbounds nuw %struct.Agedge_s, ptr %43, i32 0, i32 3
  store ptr %31, ptr %44, align 8, !tbaa !56
  %45 = load ptr, ptr %6, align 8, !tbaa !46
  %46 = load ptr, ptr %9, align 8, !tbaa !55
  %47 = getelementptr inbounds nuw %struct.Agobj_s, ptr %46, i32 0, i32 0
  %48 = load i32, ptr %47, align 8
  %49 = and i32 %48, 3
  %50 = icmp eq i32 %49, 2
  br i1 %50, label %51, label %53

51:                                               ; preds = %42
  %52 = load ptr, ptr %9, align 8, !tbaa !55
  br label %56

53:                                               ; preds = %42
  %54 = load ptr, ptr %9, align 8, !tbaa !55
  %55 = getelementptr inbounds %struct.Agedge_s, ptr %54, i64 -1
  br label %56

56:                                               ; preds = %53, %51
  %57 = phi ptr [ %52, %51 ], [ %55, %53 ]
  %58 = getelementptr inbounds nuw %struct.Agedge_s, ptr %57, i32 0, i32 3
  store ptr %45, ptr %58, align 8, !tbaa !56
  %59 = load double, ptr %7, align 8, !tbaa !39
  %60 = fcmp ogt double %59, 0x41DFFFFFFFC00000
  br i1 %60, label %61, label %64

61:                                               ; preds = %56
  %62 = load double, ptr %7, align 8, !tbaa !39
  %63 = call double @largeMinlen(double noundef %62)
  store double %63, ptr %7, align 8, !tbaa !39
  br label %64

64:                                               ; preds = %61, %56
  %65 = load double, ptr %7, align 8, !tbaa !39
  %66 = fcmp oge double %65, 0.000000e+00
  br i1 %66, label %67, label %71

67:                                               ; preds = %64
  %68 = load double, ptr %7, align 8, !tbaa !39
  %69 = fadd double %68, 5.000000e-01
  %70 = fptosi double %69 to i32
  br label %75

71:                                               ; preds = %64
  %72 = load double, ptr %7, align 8, !tbaa !39
  %73 = fsub double %72, 5.000000e-01
  %74 = fptosi double %73 to i32
  br label %75

75:                                               ; preds = %71, %67
  %76 = phi i32 [ %70, %67 ], [ %74, %71 ]
  %77 = load ptr, ptr %9, align 8, !tbaa !55
  %78 = getelementptr inbounds nuw %struct.Agobj_s, ptr %77, i32 0, i32 1
  %79 = load ptr, ptr %78, align 8, !tbaa !8
  %80 = getelementptr inbounds nuw %struct.Agedgeinfo_t, ptr %79, i32 0, i32 25
  store i32 %76, ptr %80, align 4, !tbaa !134
  %81 = load i32, ptr %8, align 4, !tbaa !36
  %82 = load ptr, ptr %9, align 8, !tbaa !55
  %83 = getelementptr inbounds nuw %struct.Agobj_s, ptr %82, i32 0, i32 1
  %84 = load ptr, ptr %83, align 8, !tbaa !8
  %85 = getelementptr inbounds nuw %struct.Agedgeinfo_t, ptr %84, i32 0, i32 21
  store i32 %81, ptr %85, align 4, !tbaa !135
  %86 = load ptr, ptr %9, align 8, !tbaa !55
  %87 = call ptr @fast_edge(ptr noundef %86)
  %88 = load ptr, ptr %9, align 8, !tbaa !55
  call void @llvm.lifetime.end.p0(i64 8, ptr %10) #11
  call void @llvm.lifetime.end.p0(i64 8, ptr %9) #11
  ret ptr %88
}