; Function Attrs: nounwind uwtable
define noundef ptr @make_aux_edge(ptr noundef %0, ptr noundef %1, double noundef %2, i32 noundef %3) local_unnamed_addr #0 {
  %5 = tail call noalias dereferenceable_or_null(128) ptr @calloc(i64 noundef 1, i64 noundef range(i64 8, 241) 128) #16
  %6 = icmp eq ptr %5, null
  br i1 %6, label %7, label %gv_alloc.exit

7:                                                ; preds = %4
  %8 = load ptr, ptr @stderr, align 8, !tbaa !54
  %9 = tail call i32 (ptr, ptr, ...) @fprintf(ptr noundef %8, ptr noundef nonnull @.str.2, i64 noundef 128) #17
  tail call fastcc void @graphviz_exit() #18
  unreachable

gv_alloc.exit:                                    ; preds = %4
  %10 = getelementptr inbounds nuw i8, ptr %5, i64 64
  store i32 3, ptr %10, align 8
  store i32 2, ptr %5, align 8
  %11 = tail call noalias dereferenceable_or_null(240) ptr @calloc(i64 noundef 1, i64 noundef range(i64 8, 241) 240) #16
  %12 = icmp eq ptr %11, null
  br i1 %12, label %13, label %gv_alloc.exit22

13:                                               ; preds = %gv_alloc.exit
  %14 = load ptr, ptr @stderr, align 8, !tbaa !54
  %15 = tail call i32 (ptr, ptr, ...) @fprintf(ptr noundef %14, ptr noundef nonnull @.str.2, i64 noundef 240) #17
  tail call fastcc void @graphviz_exit() #18
  unreachable

gv_alloc.exit22:                                  ; preds = %gv_alloc.exit
  %16 = getelementptr inbounds nuw i8, ptr %5, i64 16
  store ptr %11, ptr %16, align 8, !tbaa !90
  %17 = getelementptr inbounds nuw i8, ptr %5, i64 120
  store ptr %0, ptr %17, align 8, !tbaa !86
  %18 = getelementptr inbounds nuw i8, ptr %5, i64 56
  store ptr %1, ptr %18, align 8, !tbaa !86
  %19 = fcmp ogt double %2, 0x41DFFFFFFFC00000
  br i1 %19, label %20, label %21

20:                                               ; preds = %gv_alloc.exit22
  tail call void (ptr, ...) @agerrorf(ptr noundef nonnull @.str.3, double noundef %2, i32 noundef 2147483647) #15
  br label %21

21:                                               ; preds = %20, %gv_alloc.exit22
  %.0 = phi double [ 0x41DFFFFFFFC00000, %20 ], [ %2, %gv_alloc.exit22 ]
  %22 = fcmp ult double %.0, 0.000000e+00
  %.in.v = select i1 %22, double -5.000000e-01, double 5.000000e-01
  %.in = fadd double %.0, %.in.v
  %23 = fptosi double %.in to i32
  %24 = getelementptr inbounds nuw i8, ptr %11, i64 228
  store i32 %23, ptr %24, align 4, !tbaa !92
  %25 = getelementptr inbounds nuw i8, ptr %11, i64 212
  store i32 %3, ptr %25, align 4, !tbaa !98
  %26 = tail call ptr @fast_edge(ptr noundef nonnull %5) #15
  ret ptr %5
}